target datalayout = "e-m:e-p270:32:32-p271:32:32-p272:64:64-i64:64-i128:128-f80:128-n8:16:32:64-S128"
target triple = "x86_64-unknown-linux-gnu"

%struct.upid = type { i32, ptr }

; Function Attrs: fn_ret_thunk_extern nounwind null_pointer_is_valid
define dso_local ptr @pidfd_get_pid(i32 noundef %0, ptr nocapture noundef writeonly %1) local_unnamed_addr #0 align 16 {
  %3 = tail call i64 @__fdget(i32 noundef %0) #14
  %4 = and i64 %3, -4
  %5 = inttoptr i64 %4 to ptr
  %6 = icmp eq i64 %4, 0
  br i1 %6, label %28, label %7

7:                                                ; preds = %2
  %8 = tail call ptr @pidfd_pid(ptr noundef nonnull %5) #14
  %9 = icmp ugt ptr %8, inttoptr (i64 -4096 to ptr)
  br i1 %9, label %24, label %10

10:                                               ; preds = %7
  %11 = icmp eq ptr %8, null
  br i1 %11, label %21, label %12

12:                                               ; preds = %10
  %13 = tail call i32 asm sideeffect ".pushsection .smp_locks,\22a\22\0A.balign 4\0A.long 671f - .\0A.popsection\0A671:\0A\09lock; xaddl $0, $1\0A", "=r,=*m,0,*m,~{memory},~{cc},~{dirflag},~{fpsr},~{flags}"(ptr nonnull elementtype(i32) %8, i32 1, ptr nonnull elementtype(i32) %8) #14, !srcloc !20
  %14 = icmp eq i32 %13, 0
  br i1 %14, label %19, label %15, !prof !21

15:                                               ; preds = %12
  %16 = add i32 %13, 1
  %17 = or i32 %16, %13
  %18 = icmp sgt i32 %17, -1
  br i1 %18, label %21, label %19, !prof !8

19:                                               ; preds = %15, %12
  %20 = phi i32 [ 2, %12 ], [ 1, %15 ]
  tail call void @refcount_warn_saturate(ptr noundef nonnull %8, i32 noundef %20) #14
  br label %21

21:                                               ; preds = %19, %15, %10
  %22 = getelementptr inbounds i8, ptr %5, i64 72
  %23 = load i32, ptr %22, align 8
  store i32 %23, ptr %1, align 4
  br label %24

24:                                               ; preds = %21, %7
  %25 = and i64 %3, 1
  %26 = icmp eq i64 %25, 0
  br i1 %26, label %28, label %27

27:                                               ; preds = %24
  tail call void @fput(ptr noundef nonnull %5) #14
  br label %28

28:                                               ; preds = %27, %24, %2
  %29 = phi ptr [ inttoptr (i64 -9 to ptr), %2 ], [ %8, %24 ], [ %8, %27 ]
  ret ptr %29
}

; Function Attrs: fn_ret_thunk_extern nounwind null_pointer_is_valid
define dso_local ptr @pidfd_get_task(i32 noundef %0, ptr nocapture noundef writeonly %1) local_unnamed_addr #0 align 16 {
  %3 = alloca i32, align 4
  call void @llvm.lifetime.start.p0(i64 4, ptr nonnull %3) #14
  store i32 0, ptr %3, align 4, !annotation !32
  %4 = call ptr @pidfd_get_pid(i32 noundef %0, ptr noundef nonnull %3)
  %5 = icmp ugt ptr %4, inttoptr (i64 -4096 to ptr)
  br i1 %5, label %48, label %6

6:                                                ; preds = %2
  tail call void @__rcu_read_lock() #14
  %7 = icmp eq ptr %4, null
  br i1 %7, label %14, label %8

8:                                                ; preds = %6
  %9 = getelementptr i8, ptr %4, i64 24
  %10 = load volatile ptr, ptr %9, align 8
  %11 = icmp eq ptr %10, null
  %12 = getelementptr i8, ptr %10, i64 -1440
  %13 = select i1 %11, ptr null, ptr %12
  br label %14

14:                                               ; preds = %8, %6
  %15 = phi ptr [ %13, %8 ], [ null, %6 ]
  %16 = icmp eq ptr %15, null
  br i1 %16, label %27, label %17

17:                                               ; preds = %14
  %18 = getelementptr inbounds i8, ptr %15, i64 40
  %19 = tail call i32 asm sideeffect ".pushsection .smp_locks,\22a\22\0A.balign 4\0A.long 671f - .\0A.popsection\0A671:\0A\09lock; xaddl $0, $1\0A", "=r,=*m,0,*m,~{memory},~{cc},~{dirflag},~{fpsr},~{flags}"(ptr elementtype(i32) %18, i32 1, ptr elementtype(i32) %18) #14, !srcloc !20
  %20 = icmp eq i32 %19, 0
  br i1 %20, label %25, label %21, !prof !21

21:                                               ; preds = %17
  %22 = add i32 %19, 1
  %23 = or i32 %22, %19
  %24 = icmp sgt i32 %23, -1
  br i1 %24, label %27, label %25, !prof !8

25:                                               ; preds = %21, %17
  %26 = phi i32 [ 2, %17 ], [ 1, %21 ]
  tail call void @refcount_warn_saturate(ptr noundef %18, i32 noundef %26) #14
  br label %27

27:                                               ; preds = %25, %21, %14
  tail call void @__rcu_read_unlock() #14
  br i1 %7, label %45, label %28

28:                                               ; preds = %27
  %29 = getelementptr inbounds i8, ptr %4, i64 96
  %30 = getelementptr inbounds i8, ptr %4, i64 4
  %31 = load i32, ptr %30, align 4
  %32 = zext i32 %31 to i64
  %33 = getelementptr [0 x %struct.upid], ptr %29, i64 0, i64 %32, i32 1
  %34 = load ptr, ptr %33, align 8
  %35 = tail call i32 asm sideeffect ".pushsection .smp_locks,\22a\22\0A.balign 4\0A.long 671f - .\0A.popsection\0A671:\0A\09lock; xaddl $0, $1\0A", "=r,=*m,0,*m,~{memory},~{cc},~{dirflag},~{fpsr},~{flags}"(ptr nonnull elementtype(i32) %4, i32 -1, ptr nonnull elementtype(i32) %4) #14, !srcloc !6
  %36 = icmp eq i32 %35, 1
  br i1 %36, label %37, label %38

37:                                               ; preds = %28
  tail call void asm sideeffect "", "~{memory},~{dirflag},~{fpsr},~{flags}"() #14, !srcloc !7
  br label %41

38:                                               ; preds = %28
  %39 = icmp sgt i32 %35, 0
  br i1 %39, label %41, label %40, !prof !8

40:                                               ; preds = %38
  tail call void @refcount_warn_saturate(ptr noundef nonnull %4, i32 noundef 3) #14
  br label %41

41:                                               ; preds = %40, %38, %37
  br i1 %36, label %42, label %45

42:                                               ; preds = %41
  %43 = getelementptr inbounds i8, ptr %34, i64 56
  %44 = load ptr, ptr %43, align 8
  tail call void @kmem_cache_free(ptr noundef %44, ptr noundef nonnull %4) #14
  tail call void @put_pid_ns(ptr noundef %34) #14
  br label %45

45:                                               ; preds = %42, %41, %27
  br i1 %16, label %48, label %46

46:                                               ; preds = %45
  %47 = load i32, ptr %3, align 4
  store i32 %47, ptr %1, align 4
  br label %48

48:                                               ; preds = %46, %45, %2
  %49 = phi ptr [ %15, %46 ], [ %4, %2 ], [ inttoptr (i64 -3 to ptr), %45 ]
  call void @llvm.lifetime.end.p0(i64 4, ptr nonnull %3) #14
  ret ptr %49
}