; Function Attrs: fn_ret_thunk_extern nounwind null_pointer_is_valid
define dso_local ptr @pidfd_get_task(i32 noundef %0, ptr nocapture noundef writeonly %1) local_unnamed_addr #0 align 16 {
  %3 = tail call i64 @__fdget(i32 noundef %0) #14
  %4 = and i64 %3, -4
  %5 = inttoptr i64 %4 to ptr
  %6 = icmp eq i64 %4, 0
  br i1 %6, label %pidfd_get_pid.exit.thread, label %7

7:                                                ; preds = %2
  %8 = tail call ptr @pidfd_pid(ptr noundef nonnull %5) #14
  %9 = icmp ugt ptr %8, inttoptr (i64 -4096 to ptr)
  br i1 %9, label %24, label %10

10:                                               ; preds = %7
  %11 = icmp eq ptr %8, null
  br i1 %11, label %21, label %12

12:                                               ; preds = %10
  %13 = tail call i32 asm sideeffect ".pushsection .smp_locks,\22a\22\0A.balign 4\0A.long 671f - .\0A.popsection\0A671:\0A\09lock; xaddl $0, $1\0A", "=r,=*m,0,*m,~{memory},~{cc},~{dirflag},~{fpsr},~{flags}"(ptr nonnull elementtype(i32) %8, i32 1, ptr nonnull elementtype(i32) %8) #14, !srcloc !20
  %14 = icmp eq i32 %13, 0
  br i1 %14, label %19, label %15, !prof !21

15:                                               ; preds = %12
  %16 = add i32 %13, 1
  %17 = or i32 %16, %13
  %18 = icmp sgt i32 %17, -1
  br i1 %18, label %21, label %19, !prof !7

19:                                               ; preds = %15, %12
  %20 = phi i32 [ 2, %12 ], [ 1, %15 ]
  tail call void @refcount_warn_saturate(ptr noundef nonnull %8, i32 noundef %20) #14
  br label %21

21:                                               ; preds = %19, %15, %10
  %22 = getelementptr inbounds i8, ptr %5, i64 72
  %23 = load i32, ptr %22, align 8
  br label %24

24:                                               ; preds = %21, %7
  %.0 = phi i32 [ 0, %7 ], [ %23, %21 ]
  %25 = and i64 %3, 1
  %26 = icmp eq i64 %25, 0
  br i1 %26, label %pidfd_get_pid.exit, label %27

27:                                               ; preds = %24
  tail call void @fput(ptr noundef nonnull %5) #14
  br label %pidfd_get_pid.exit

pidfd_get_pid.exit:                               ; preds = %24, %27
  br i1 %9, label %pidfd_get_pid.exit.thread, label %28

28:                                               ; preds = %pidfd_get_pid.exit
  tail call void @__rcu_read_lock() #14
  %29 = icmp eq ptr %8, null
  br i1 %29, label %.thread11, label %30

.thread11:                                        ; preds = %28
  tail call void @__rcu_read_unlock() #14
  br label %pidfd_get_pid.exit.thread

30:                                               ; preds = %28
  %31 = getelementptr i8, ptr %8, i64 24
  %32 = load volatile ptr, ptr %31, align 8
  %33 = icmp eq ptr %32, null
  %34 = getelementptr i8, ptr %32, i64 -1440
  br i1 %33, label %.thread7, label %35

35:                                               ; preds = %30
  %36 = icmp eq ptr %34, null
  br i1 %36, label %.thread7, label %37

37:                                               ; preds = %35
  %38 = getelementptr i8, ptr %32, i64 -1400
  %39 = tail call i32 asm sideeffect ".pushsection .smp_locks,\22a\22\0A.balign 4\0A.long 671f - .\0A.popsection\0A671:\0A\09lock; xaddl $0, $1\0A", "=r,=*m,0,*m,~{memory},~{cc},~{dirflag},~{fpsr},~{flags}"(ptr elementtype(i32) %38, i32 1, ptr elementtype(i32) %38) #14, !srcloc !20
  %40 = icmp eq i32 %39, 0
  br i1 %40, label %45, label %41, !prof !21

41:                                               ; preds = %37
  %42 = add i32 %39, 1
  %43 = or i32 %42, %39
  %44 = icmp sgt i32 %43, -1
  br i1 %44, label %.thread7, label %45, !prof !7

45:                                               ; preds = %41, %37
  %46 = phi i32 [ 2, %37 ], [ 1, %41 ]
  tail call void @refcount_warn_saturate(ptr noundef %38, i32 noundef %46) #14
  br label %.thread7

.thread7:                                         ; preds = %30, %35, %41, %45
  %47 = phi ptr [ %34, %45 ], [ %34, %41 ], [ %34, %35 ], [ null, %30 ]
  %48 = phi i1 [ %36, %45 ], [ %36, %41 ], [ %36, %35 ], [ true, %30 ]
  tail call void @__rcu_read_unlock() #14
  %49 = getelementptr inbounds i8, ptr %8, i64 96
  %50 = getelementptr inbounds i8, ptr %8, i64 4
  %51 = load i32, ptr %50, align 4
  %52 = zext i32 %51 to i64
  %53 = getelementptr [0 x %struct.upid], ptr %49, i64 0, i64 %52, i32 1
  %54 = load ptr, ptr %53, align 8
  %55 = tail call i32 asm sideeffect ".pushsection .smp_locks,\22a\22\0A.balign 4\0A.long 671f - .\0A.popsection\0A671:\0A\09lock; xaddl $0, $1\0A", "=r,=*m,0,*m,~{memory},~{cc},~{dirflag},~{fpsr},~{flags}"(ptr nonnull elementtype(i32) %8, i32 -1, ptr nonnull elementtype(i32) %8) #14, !srcloc !6
  %56 = icmp eq i32 %55, 1
  br i1 %56, label %60, label %57

57:                                               ; preds = %.thread7
  %58 = icmp sgt i32 %55, 0
  br i1 %58, label %63, label %59, !prof !7

59:                                               ; preds = %57
  tail call void @refcount_warn_saturate(ptr noundef nonnull %8, i32 noundef 3) #14
  br label %63

60:                                               ; preds = %.thread7
  tail call void asm sideeffect "", "~{memory},~{dirflag},~{fpsr},~{flags}"() #14, !srcloc !8
  %61 = getelementptr inbounds i8, ptr %54, i64 56
  %62 = load ptr, ptr %61, align 8
  tail call void @kmem_cache_free(ptr noundef %62, ptr noundef nonnull %8) #14
  tail call void @put_pid_ns(ptr noundef %54) #14
  br i1 %48, label %pidfd_get_pid.exit.thread, label %64

63:                                               ; preds = %59, %57
  br i1 %48, label %pidfd_get_pid.exit.thread, label %64

64:                                               ; preds = %60, %63
  store i32 %.0, ptr %1, align 4
  br label %pidfd_get_pid.exit.thread

pidfd_get_pid.exit.thread:                        ; preds = %2, %60, %.thread11, %64, %63, %pidfd_get_pid.exit
  %65 = phi ptr [ %47, %64 ], [ %8, %pidfd_get_pid.exit ], [ inttoptr (i64 -3 to ptr), %63 ], [ inttoptr (i64 -3 to ptr), %.thread11 ], [ inttoptr (i64 -3 to ptr), %60 ], [ inttoptr (i64 -9 to ptr), %2 ]
  ret ptr %65
}